target datalayout = "e-m:e-p270:32:32-p271:32:32-p272:64:64-i64:64-i128:128-f80:128-n8:16:32:64-S128"
target triple = "x86_64-pc-linux-gnu"

@preeb_prefix = internal constant [12 x i8] c"-----BEGIN \00", align 1
@line_is_eb.suffix = internal constant [6 x i8] c"-----\00", align 1

; Function Attrs: nounwind null_pointer_is_valid sspstrong uwtable
define internal zeroext i1 @line_is_eb(ptr noundef %0, i32 noundef %1, ptr noundef %2, i64 noundef %3, ptr noundef %4, ptr noundef %5) #3 {
  %7 = alloca i1, align 1
  %8 = alloca ptr, align 8
  %9 = alloca i32, align 4
  %10 = alloca ptr, align 8
  %11 = alloca i64, align 8
  %12 = alloca ptr, align 8
  %13 = alloca ptr, align 8
  %14 = alloca ptr, align 8
  %15 = alloca i32, align 4
  %16 = alloca i32, align 4
  %17 = alloca i32, align 4
  store ptr %0, ptr %8, align 8
  store i32 %1, ptr %9, align 4
  store ptr %2, ptr %10, align 8
  store i64 %3, ptr %11, align 8
  store ptr %4, ptr %12, align 8
  store ptr %5, ptr %13, align 8
  call void @llvm.lifetime.start.p0(i64 8, ptr %14) #6
  call void @llvm.lifetime.start.p0(i64 4, ptr %15) #6
  %18 = load i32, ptr %9, align 4
  %19 = sext i32 %18 to i64
  %20 = load i64, ptr %11, align 8
  %21 = add i64 %20, 5
  %22 = icmp ult i64 %19, %21
  br i1 %22, label %23, label %24

23:                                               ; preds = %6
  store i1 false, ptr %7, align 1
  store i32 1, ptr %16, align 4
  br label %98

24:                                               ; preds = %6
  %25 = load ptr, ptr %8, align 8
  %26 = load ptr, ptr %10, align 8
  %27 = load i64, ptr %11, align 8
  %28 = call i32 @memcmp(ptr noundef %25, ptr noundef %26, i64 noundef %27) #8
  %29 = icmp ne i32 %28, 0
  br i1 %29, label %30, label %31

30:                                               ; preds = %24
  store i1 false, ptr %7, align 1
  store i32 1, ptr %16, align 4
  br label %98

31:                                               ; preds = %24
  %32 = load ptr, ptr %8, align 8
  %33 = load i32, ptr %9, align 4
  %34 = sext i32 %33 to i64
  %35 = getelementptr i8, ptr %32, i64 %34
  %36 = getelementptr i8, ptr %35, i64 -5
  %37 = call i32 @memcmp(ptr noundef %36, ptr noundef @line_is_eb.suffix, i64 noundef 5) #8
  %38 = icmp ne i32 %37, 0
  br i1 %38, label %39, label %40

39:                                               ; preds = %31
  store i1 false, ptr %7, align 1
  store i32 1, ptr %16, align 4
  br label %98

40:                                               ; preds = %31
  %41 = load ptr, ptr %8, align 8
  %42 = load i64, ptr %11, align 8
  %43 = getelementptr i8, ptr %41, i64 %42
  store ptr %43, ptr %14, align 8
  %44 = load i32, ptr %9, align 4
  %45 = sext i32 %44 to i64
  %46 = load i64, ptr %11, align 8
  %47 = add i64 %46, 5
  %48 = sub i64 %45, %47
  %49 = trunc i64 %48 to i32
  store i32 %49, ptr %15, align 4
  %50 = load ptr, ptr %14, align 8
  %51 = load ptr, ptr %12, align 8
  store ptr %50, ptr %51, align 8
  %52 = load i32, ptr %15, align 4
  %53 = load ptr, ptr %13, align 8
  store i32 %52, ptr %53, align 4
  %54 = load i32, ptr %15, align 4
  %55 = icmp eq i32 %54, 0
  br i1 %55, label %56, label %57

56:                                               ; preds = %40
  store i1 true, ptr %7, align 1
  store i32 1, ptr %16, align 4
  br label %98

57:                                               ; preds = %40
  %58 = load ptr, ptr %14, align 8
  %59 = load i8, ptr %58, align 1
  %60 = zext i8 %59 to i32
  %61 = icmp eq i32 %60, 32
  br i1 %61, label %67, label %62

62:                                               ; preds = %57
  %63 = load ptr, ptr %14, align 8
  %64 = load i8, ptr %63, align 1
  %65 = zext i8 %64 to i32
  %66 = icmp eq i32 %65, 45
  br i1 %66, label %67, label %68

67:                                               ; preds = %62, %57
  store i1 false, ptr %7, align 1
  store i32 1, ptr %16, align 4
  br label %98

68:                                               ; preds = %62
  %69 = load ptr, ptr %14, align 8
  %70 = getelementptr i8, ptr %69, i32 1
  store ptr %70, ptr %14, align 8
  %71 = load i32, ptr %15, align 4
  %72 = add i32 %71, -1
  store i32 %72, ptr %15, align 4
  call void @llvm.lifetime.start.p0(i64 4, ptr %17) #6
  store i32 0, ptr %17, align 4
  br label %73

73:                                               ; preds = %90, %68
  %74 = load i32, ptr %17, align 4
  %75 = load i32, ptr %15, align 4
  %76 = icmp slt i32 %74, %75
  br i1 %76, label %78, label %77

77:                                               ; preds = %73
  store i32 2, ptr %16, align 4
  br label %95

78:                                               ; preds = %73
  %79 = load ptr, ptr %14, align 8
  %80 = load i8, ptr %79, align 1
  %81 = zext i8 %80 to i32
  %82 = icmp slt i32 %81, 32
  br i1 %82, label %88, label %83

83:                                               ; preds = %78
  %84 = load ptr, ptr %14, align 8
  %85 = load i8, ptr %84, align 1
  %86 = zext i8 %85 to i32
  %87 = icmp sgt i32 %86, 126
  br i1 %87, label %88, label %89

88:                                               ; preds = %83, %78
  store i1 false, ptr %7, align 1
  store i32 1, ptr %16, align 4
  br label %95

89:                                               ; preds = %83
  br label %90

90:                                               ; preds = %89
  %91 = load i32, ptr %17, align 4
  %92 = add i32 %91, 1
  store i32 %92, ptr %17, align 4
  %93 = load ptr, ptr %14, align 8
  %94 = getelementptr i8, ptr %93, i32 1
  store ptr %94, ptr %14, align 8
  br label %73, !llvm.loop !13

95:                                               ; preds = %88, %77
  call void @llvm.lifetime.end.p0(i64 4, ptr %17) #6
  %96 = load i32, ptr %16, align 4
  switch i32 %96, label %98 [
    i32 2, label %97
  ]

97:                                               ; preds = %95
  store i1 true, ptr %7, align 1
  store i32 1, ptr %16, align 4
  br label %98

98:                                               ; preds = %97, %95, %67, %56, %39, %30, %23
  call void @llvm.lifetime.end.p0(i64 4, ptr %15) #6
  call void @llvm.lifetime.end.p0(i64 8, ptr %14) #6
  %99 = load i1, ptr %7, align 1
  ret i1 %99
}

; Function Attrs: null_pointer_is_valid sspstrong uwtable
define internal zeroext i1 @dissect_rfc7468_heur(ptr noundef %0, ptr noundef %1, ptr noundef %2, ptr noundef %3) #0 {
  %5 = alloca i1, align 1
  %6 = alloca ptr, align 8
  %7 = alloca ptr, align 8
  %8 = alloca ptr, align 8
  %9 = alloca ptr, align 8
  %10 = alloca i32, align 4
  %11 = alloca i32, align 4
  %12 = alloca i32, align 4
  %13 = alloca ptr, align 8
  %14 = alloca ptr, align 8
  %15 = alloca i32, align 4
  %16 = alloca i8, align 1
  %17 = alloca i32, align 4
  %18 = alloca i32, align 4
  store ptr %0, ptr %6, align 8
  store ptr %1, ptr %7, align 8
  store ptr %2, ptr %8, align 8
  store ptr %3, ptr %9, align 8
  call void @llvm.lifetime.start.p0(i64 4, ptr %10) #6
  call void @llvm.lifetime.start.p0(i64 4, ptr %11) #6
  call void @llvm.lifetime.start.p0(i64 4, ptr %12) #6
  call void @llvm.lifetime.start.p0(i64 8, ptr %13) #6
  call void @llvm.lifetime.start.p0(i64 8, ptr %14) #6
  call void @llvm.lifetime.start.p0(i64 4, ptr %15) #6
  call void @llvm.lifetime.start.p0(i64 1, ptr %16) #6
  store i8 0, ptr %16, align 1
  store i32 0, ptr %10, align 4
  call void @llvm.lifetime.start.p0(i64 4, ptr %17) #6
  store i32 0, ptr %17, align 4
  br label %19

19:                                               ; preds = %41, %4
  %20 = load i32, ptr %17, align 4
  %21 = icmp ult i32 %20, 20
  br i1 %21, label %23, label %22

22:                                               ; preds = %19
  store i32 2, ptr %18, align 4
  br label %44

23:                                               ; preds = %19
  %24 = load ptr, ptr %6, align 8
  %25 = load i32, ptr %10, align 4
  %26 = call i32 @tvb_find_line_end(ptr noundef %24, i32 noundef %25, i32 noundef -1, ptr noundef %12, i1 noundef zeroext false)
  store i32 %26, ptr %11, align 4
  %27 = load i32, ptr %11, align 4
  %28 = icmp eq i32 %27, -1
  br i1 %28, label %29, label %30

29:                                               ; preds = %23
  store i32 2, ptr %18, align 4
  br label %44

30:                                               ; preds = %23
  %31 = load ptr, ptr %6, align 8
  %32 = load i32, ptr %10, align 4
  %33 = load i32, ptr %11, align 4
  %34 = call ptr @tvb_get_ptr(ptr noundef %31, i32 noundef %32, i32 noundef %33)
  store ptr %34, ptr %13, align 8
  %35 = load ptr, ptr %13, align 8
  %36 = load i32, ptr %11, align 4
  %37 = call zeroext i1 @line_is_eb(ptr noundef %35, i32 noundef %36, ptr noundef @preeb_prefix, i64 noundef 11, ptr noundef %14, ptr noundef %15)
  br i1 %37, label %38, label %39

38:                                               ; preds = %30
  store i8 1, ptr %16, align 1
  store i32 2, ptr %18, align 4
  br label %44

39:                                               ; preds = %30
  %40 = load i32, ptr %12, align 4
  store i32 %40, ptr %10, align 4
  br label %41

41:                                               ; preds = %39
  %42 = load i32, ptr %17, align 4
  %43 = add i32 %42, 1
  store i32 %43, ptr %17, align 4
  br label %19, !llvm.loop !10

44:                                               ; preds = %38, %29, %22
  call void @llvm.lifetime.end.p0(i64 4, ptr %17) #6
  br label %45

45:                                               ; preds = %44
  %46 = load i8, ptr %16, align 1, !range !11, !noundef !12
  %47 = trunc i8 %46 to i1
  br i1 %47, label %49, label %48

48:                                               ; preds = %45
  store i1 false, ptr %5, align 1
  store i32 1, ptr %18, align 4
  br label %55

49:                                               ; preds = %45
  %50 = load ptr, ptr %6, align 8
  %51 = load ptr, ptr %7, align 8
  %52 = load ptr, ptr %8, align 8
  %53 = load ptr, ptr %9, align 8
  %54 = call i32 @dissect_rfc7468(ptr noundef %50, ptr noundef %51, ptr noundef %52, ptr noundef %53)
  store i1 true, ptr %5, align 1
  store i32 1, ptr %18, align 4
  br label %55

55:                                               ; preds = %49, %48
  call void @llvm.lifetime.end.p0(i64 1, ptr %16) #6
  call void @llvm.lifetime.end.p0(i64 4, ptr %15) #6
  call void @llvm.lifetime.end.p0(i64 8, ptr %14) #6
  call void @llvm.lifetime.end.p0(i64 8, ptr %13) #6
  call void @llvm.lifetime.end.p0(i64 4, ptr %12) #6
  call void @llvm.lifetime.end.p0(i64 4, ptr %11) #6
  call void @llvm.lifetime.end.p0(i64 4, ptr %10) #6
  %56 = load i1, ptr %5, align 1
  ret i1 %56
}