; Function Attrs: null_pointer_is_valid sspstrong uwtable
define internal noundef zeroext i1 @dissect_rfc7468_heur(ptr noundef %0, ptr noundef %1, ptr noundef %2, ptr readnone captures(none) %3) #0 {
  %5 = alloca i32, align 4
  call void @llvm.lifetime.start.p0(i64 4, ptr nonnull %5) #5
  br label %6

6:                                                ; preds = %4, %.loopexit
  %.028 = phi i32 [ 0, %4 ], [ %29, %.loopexit ]
  %.01727 = phi i32 [ 0, %4 ], [ %28, %.loopexit ]
  %7 = call i32 @tvb_find_line_end(ptr noundef %0, i32 noundef %.01727, i32 noundef -1, ptr noundef nonnull %5, i1 noundef zeroext false)
  %8 = icmp eq i32 %7, -1
  br i1 %8, label %line_is_eb.exit, label %9

9:                                                ; preds = %6
  %10 = call ptr @tvb_get_ptr(ptr noundef %0, i32 noundef %.01727, i32 noundef %7)
  %11 = sext i32 %7 to i64
  %12 = icmp ult i32 %7, 16
  br i1 %12, label %.loopexit, label %13

13:                                               ; preds = %9
  %bcmp.i = call i32 @bcmp(ptr noundef dereferenceable(11) %10, ptr noundef nonnull dereferenceable(11) @preeb_prefix, i64 11)
  %.not.i = icmp eq i32 %bcmp.i, 0
  br i1 %.not.i, label %14, label %.loopexit

14:                                               ; preds = %13
  %15 = getelementptr i8, ptr %10, i64 %11
  %16 = getelementptr i8, ptr %15, i64 -5
  %bcmp35.i = call i32 @bcmp(ptr noundef dereferenceable(5) %16, ptr noundef nonnull dereferenceable(5) @line_is_eb.suffix, i64 5)
  %.not36.i = icmp eq i32 %bcmp35.i, 0
  br i1 %.not36.i, label %17, label %.loopexit

17:                                               ; preds = %14
  %18 = getelementptr i8, ptr %10, i64 11
  %19 = icmp eq i32 %7, 16
  br i1 %19, label %.loopexit25, label %20

20:                                               ; preds = %17
  %21 = load i8, ptr %18, align 1
  switch i8 %21, label %22 [
    i8 32, label %.loopexit
    i8 45, label %.loopexit
  ]

22:                                               ; preds = %20
  %23 = add i32 %7, -17
  %.not3739.i = icmp slt i32 %23, 1
  br i1 %.not3739.i, label %.loopexit25, label %.lr.ph.i

24:                                               ; preds = %.lr.ph.i
  %25 = add nuw nsw i32 %.040.i, 1
  %exitcond.not.i = icmp eq i32 %25, %23
  br i1 %exitcond.not.i, label %.loopexit25, label %.lr.ph.i, !llvm.loop !6

.lr.ph.i:                                         ; preds = %22, %24
  %.pn.pn.i = phi ptr [ %.02841.i, %24 ], [ %18, %22 ]
  %.040.i = phi i32 [ %25, %24 ], [ 0, %22 ]
  %.02841.i = getelementptr i8, ptr %.pn.pn.i, i64 1
  %26 = load i8, ptr %.02841.i, align 1
  %27 = add i8 %26, -32
  %or.cond.i = icmp ult i8 %27, 95
  br i1 %or.cond.i, label %24, label %.loopexit

.loopexit:                                        ; preds = %.lr.ph.i, %9, %13, %14, %20, %20
  %28 = load i32, ptr %5, align 4
  %29 = add nuw nsw i32 %.028, 1
  %exitcond.not = icmp eq i32 %29, 20
  br i1 %exitcond.not, label %line_is_eb.exit, label %6, !llvm.loop !12

.loopexit25:                                      ; preds = %17, %22, %24
  %30 = call i32 @dissect_rfc7468(ptr noundef %0, ptr noundef %1, ptr noundef %2, ptr poison)
  br label %line_is_eb.exit

line_is_eb.exit:                                  ; preds = %.loopexit, %6, %.loopexit25
  %.01523 = phi i1 [ true, %.loopexit25 ], [ false, %6 ], [ false, %.loopexit ]
  call void @llvm.lifetime.end.p0(i64 4, ptr nonnull %5) #5
  ret i1 %.01523
}